Certificate:
    Data:
        Version: 3 (0x2)
        Serial Number: 67 (0x43)
    Signature Algorithm: sha256WithRSAEncryption
        Issuer: C=CH, O=HEIG-VD, CN=HEIG-VDRoot
        Validity
            Not Before: Jun  7 14:26:56 2022 GMT
            Not After : Jun  6 14:26:56 2032 GMT
        Subject: C=CH, O=HEIG-VD, CN=ALLEMANO-Email
        Subject Public Key Info:
            Public Key Algorithm: rsaEncryption
                Public-Key: (1024 bit)
                Modulus:
                    00:c1:9f:fa:b8:9e:ef:1b:05:e1:8a:30:cb:f2:5a:
                    30:03:cd:5f:7d:9e:4c:0b:12:5d:ba:c1:1e:54:ef:
                    14:28:30:f0:60:b6:d0:63:bb:9b:1e:7e:29:71:24:
                    e9:34:0b:72:38:29:71:1a:e2:ef:dc:81:5f:40:80:
                    cc:51:78:ec:0f:33:66:24:25:4e:17:fa:99:98:9c:
                    b4:d2:6f:fe:fd:71:34:1d:08:71:36:3e:15:c3:e0:
                    ed:7f:e1:a2:89:e7:de:4c:1d:10:6b:d9:79:85:c0:
                    1a:3b:24:62:7a:da:cb:49:14:2d:28:3c:ea:2b:51:
                    4b:39:91:af:ef:39:ff:f3:1f
                Exponent: 65537 (0x10001)
        X509v3 extensions:
            X509v3 Key Usage: critical
                Certificate Sign, CRL Sign
            X509v3 Basic Constraints: critical
                CA:TRUE, pathlen:0
            X509v3 Subject Key Identifier: 
                57:73:93:BD:53:06:E0:A0:A3:75:24:39:18:57:63:8F:C0:2B:09:93
            X509v3 Authority Key Identifier: 
                keyid:8A:F0:29:1C:64:AB:7B:B0:13:53:15:65:38:A1:7B:56:EE:73:F6:71

    Signature Algorithm: sha256WithRSAEncryption
         8e:e8:c5:ec:40:96:19:8e:12:d0:13:b6:28:7b:02:d2:5e:2f:
         d8:cb:c7:6c:43:ad:d4:00:e7:12:8a:84:be:b0:5d:11:58:cf:
         2b:e8:4b:c1:cc:49:e1:5e:b5:08:60:08:39:d8:b4:28:68:1b:
         d6:1c:27:2a:0a:6f:ea:a9:cc:b5:a4:26:6b:37:0a:b4:b8:fd:
         d7:23:95:c0:97:61:10:8c:7d:7b:c4:eb:b3:12:83:7e:f6:db:
         a9:04:40:32:1e:0c:b7:c3:11:8c:de:65:5a:90:89:d9:29:9a:
         69:d0:a7:ce:34:f9:c1:eb:0a:ac:4f:03:03:7d:2c:6c:fd:17:
         f8:67:6c:97:78:fc:8a:67:ee:7a:60:7d:be:25:50:b2:09:8f:
         04:2e:4d:2e:f1:a9:8e:b2:f3:c8:d2:ab:06:a6:55:d4:cb:a3:
         d2:bf:2b:39:27:65:c7:1a:6b:c3:c4:0d:c4:45:bb:18:f1:3a:
         62:17:62:f7:9b:e2:4f:97:8f:15:87:90:9f:d4:6a:11:a9:9f:
         91:b5:88:b0:75:02:16:c1:0e:40:95:43:aa:4e:75:66:09:1b:
         1d:4e:8c:4e:97:e0:85:aa:10:5b:55:bc:a8:7a:9e:86:39:d1:
         00:6b:aa:a7:23:33:32:f4:b8:56:3c:09:7f:34:5f:28:a4:ec:
         5c:c7:0e:ef
-----BEGIN CERTIFICATE-----
MIICyjCCAbKgAwIBAgIBQzANBgkqhkiG9w0BAQsFADA1MQswCQYDVQQGEwJDSDEQ
MA4GA1UECgwHSEVJRy1WRDEUMBIGA1UEAwwLSEVJRy1WRFJvb3QwHhcNMjIwNjA3
MTQyNjU2WhcNMzIwNjA2MTQyNjU2WjA4MQswCQYDVQQGEwJDSDEQMA4GA1UECgwH
SEVJRy1WRDEXMBUGA1UEAwwOQUxMRU1BTk8tRW1haWwwgZ8wDQYJKoZIhvcNAQEB
BQADgY0AMIGJAoGBAMGf+rie7xsF4Yowy/JaMAPNX32eTAsSXbrBHlTvFCgw8GC2
0GO7mx5+KXEk6TQLcjgpcRri79yBX0CAzFF47A8zZiQlThf6mZictNJv/v1xNB0I
cTY+FcPg7X/hoonn3kwdEGvZeYXAGjskYnray0kULSg86itRSzmRr+85//MfAgMB
AAGjZjBkMA4GA1UdDwEB/wQEAwIBBjASBgNVHRMBAf8ECDAGAQH/AgEAMB0GA1Ud
DgQWBBRXc5O9UwbgoKN1JDkYV2OPwCsJkzAfBgNVHSMEGDAWgBSK8CkcZKt7sBNT
FWU4oXtW7nP2cTANBgkqhkiG9w0BAQsFAAOCAQEAjujF7ECWGY4S0BO2KHsC0l4v
2MvHbEOt1ADnEoqEvrBdEVjPK+hLwcxJ4V61CGAIOdi0KGgb1hwnKgpv6qnMtaQm
azcKtLj91yOVwJdhEIx9e8TrsxKDfvbbqQRAMh4Mt8MRjN5lWpCJ2SmaadCnzjT5
wesKrE8DA30sbP0X+Gdsl3j8imfuemB9viVQsgmPBC5NLvGpjrLzyNKrBqZV1Muj
0r8rOSdlxxprw8QNxEW7GPE6Yhdi95viT5ePFYeQn9RqEamfkbWIsHUCFsEOQJVD
qk51ZgkbHU6MTpfghaoQW1W8qHqehjnRAGuqpyMzMvS4VjwJfzRfKKTsXMcO7w==
-----END CERTIFICATE-----
