Certificate:
    Data:
        Version: 3 (0x2)
        Serial Number: 1 (0x1)
        Signature Algorithm: sha256WithRSAEncryption
        Issuer: C=CH, O=HEIG-VD, CN=ALLEMANO-TLS
        Validity
            Not Before: Jun  7 15:35:17 2022 GMT
            Not After : Jun  6 15:35:17 2024 GMT
        Subject: C=CH, O=HEIG-VD, CN=www.enzo.ch
        Subject Public Key Info:
            Public Key Algorithm: rsaEncryption
                RSA Public-Key: (1024 bit)
                Modulus:
                    00:a5:ba:f9:ac:67:9e:47:5f:f4:c1:fb:cc:ef:4e:
                    79:23:7c:4f:56:e8:39:17:96:54:d3:c6:e9:10:48:
                    fc:ef:da:c9:83:c8:89:02:c4:e0:5c:01:80:51:c7:
                    9b:79:0f:e5:a3:82:16:37:cb:e1:b6:d5:c3:09:58:
                    a1:e3:86:50:b3:c8:36:86:fc:08:97:1a:c6:b4:39:
                    6f:ec:2b:4f:6f:c2:f0:08:20:e3:4b:f1:b9:07:e3:
                    61:d0:ef:e3:73:43:38:96:f7:18:76:cd:fe:4b:df:
                    3f:f2:f5:0e:33:ec:98:6a:15:d0:df:68:25:b3:cd:
                    d9:61:f8:fc:84:19:cd:d7:75
                Exponent: 65537 (0x10001)
        X509v3 extensions:
            X509v3 Key Usage: critical
                Digital Signature, Key Encipherment
            X509v3 Basic Constraints: 
                CA:FALSE
            X509v3 Extended Key Usage: 
                TLS Web Server Authentication, TLS Web Client Authentication
            X509v3 Subject Key Identifier: 
                BE:80:21:E5:AF:B3:0E:5D:0E:1B:0C:A7:61:D3:13:DD:03:B0:38:D2
            X509v3 Authority Key Identifier: 
                keyid:9B:65:A5:D8:EC:13:EC:82:59:2E:B6:55:F4:5E:6C:5E:00:13:DD:7F

            X509v3 Subject Alternative Name: 
                IP Address:10.192.72.133
    Signature Algorithm: sha256WithRSAEncryption
         29:53:f1:c4:54:8a:de:a3:90:43:ec:8e:be:03:28:6d:94:e2:
         a8:e3:04:24:f8:38:af:b8:fe:a3:d4:de:ed:db:1c:db:96:9b:
         e3:33:e3:fa:83:be:52:63:a3:0e:c2:a9:85:54:90:73:6f:d3:
         fe:aa:7d:e4:3a:b3:4d:b9:37:67:2f:05:cf:4d:c9:11:5c:61:
         3f:f0:fc:a0:d2:08:97:0f:6d:4c:bb:4c:e4:04:3c:e4:32:34:
         82:6c:ec:25:cf:26:ae:57:7c:0d:75:bf:65:f7:4d:e2:b6:4f:
         a4:eb:86:9e:82:3b:18:95:ee:28:a5:46:52:19:21:e8:46:63:
         07:2f
-----BEGIN CERTIFICATE-----
MIICcDCCAdmgAwIBAgIBATANBgkqhkiG9w0BAQsFADA2MQswCQYDVQQGEwJDSDEQ
MA4GA1UECgwHSEVJRy1WRDEVMBMGA1UEAwwMQUxMRU1BTk8tVExTMB4XDTIyMDYw
NzE1MzUxN1oXDTI0MDYwNjE1MzUxN1owNTELMAkGA1UEBhMCQ0gxEDAOBgNVBAoM
B0hFSUctVkQxFDASBgNVBAMMC3d3dy5lbnpvLmNoMIGfMA0GCSqGSIb3DQEBAQUA
A4GNADCBiQKBgQCluvmsZ55HX/TB+8zvTnkjfE9W6DkXllTTxukQSPzv2smDyIkC
xOBcAYBRx5t5D+WjghY3y+G21cMJWKHjhlCzyDaG/AiXGsa0OW/sK09vwvAIIONL
8bkH42HQ7+NzQziW9xh2zf5L3z/y9Q4z7JhqFdDfaCWzzdlh+PyEGc3XdQIDAQAB
o4GOMIGLMA4GA1UdDwEB/wQEAwIFoDAJBgNVHRMEAjAAMB0GA1UdJQQWMBQGCCsG
AQUFBwMBBggrBgEFBQcDAjAdBgNVHQ4EFgQUvoAh5a+zDl0OGwynYdMT3QOwONIw
HwYDVR0jBBgwFoAUm2Wl2OwT7IJZLrZV9F5sXgAT3X8wDwYDVR0RBAgwBocECsBI
hTANBgkqhkiG9w0BAQsFAAOBgQApU/HEVIreo5BD7I6+AyhtlOKo4wQk+DivuP6j
1N7t2xzblpvjM+P6g75SY6MOwqmFVJBzb9P+qn3kOrNNuTdnLwXPTckRXGE/8Pyg
0giXD21Mu0zkBDzkMjSCbOwlzyauV3wNdb9l903itk+k64aegjsYle4opUZSGSHo
RmMHLw==
-----END CERTIFICATE-----
