Certificate:
    Data:
        Version: 3 (0x2)
        Serial Number: 1 (0x1)
        Signature Algorithm: sha256WithRSAEncryption
        Issuer: C=CH, O=HEIG-VD, CN=ALLEMANO-Email
        Validity
            Not Before: Jun  7 13:18:15 2022 GMT
            Not After : Jun  6 13:18:15 2024 GMT
        Subject: C=CH, O=HEIG-VD, CN=ALLEMANO-Email
        Subject Public Key Info:
            Public Key Algorithm: rsaEncryption
                RSA Public-Key: (1024 bit)
                Modulus:
                    00:be:08:a7:66:d3:de:23:9d:90:d6:43:37:48:4f:
                    18:f6:79:5e:8d:2d:c6:38:ea:40:89:1a:d4:af:5a:
                    df:dc:f7:48:23:01:65:b3:59:e6:5d:e0:af:ac:23:
                    b7:99:b2:3b:29:22:ce:4a:98:78:65:3f:76:96:20:
                    2d:6c:0d:b1:5c:4b:5d:17:34:86:be:f5:71:8b:f4:
                    9a:6a:9f:cc:fe:e2:1e:62:84:b9:33:1d:23:c1:5c:
                    a5:e5:d4:63:2b:10:1a:ed:34:b2:e6:14:4a:1f:ab:
                    d1:27:f8:e7:0a:1e:f2:3c:f4:ab:cf:07:02:32:70:
                    6f:13:70:62:49:f6:1e:31:01
                Exponent: 65537 (0x10001)
        X509v3 extensions:
            X509v3 Key Usage: critical
                Certificate Sign, CRL Sign
            X509v3 Basic Constraints: critical
                CA:TRUE, pathlen:0
            X509v3 Subject Key Identifier: 
                2D:00:99:BF:2F:2C:76:06:00:7D:D9:A1:E5:3D:F7:49:83:A9:AA:6C
            X509v3 Authority Key Identifier: 
                keyid:B6:B3:9A:BA:63:22:4D:CC:79:EF:30:00:2A:57:0C:47:CD:90:FA:00

            X509v3 Extended Key Usage: 
                E-mail Protection, TLS Web Client Authentication
            X509v3 Subject Alternative Name: 
                email:YOUR_EMAIL_ADDRESS
    Signature Algorithm: sha256WithRSAEncryption
         a0:ec:6b:57:56:7c:9b:a4:3f:38:6d:f9:a7:4d:26:57:38:4b:
         5f:85:6f:ff:13:e0:fe:f7:ed:89:06:aa:5e:fa:ab:d7:6f:d6:
         58:05:48:7f:a5:9b:69:45:25:9b:dd:c7:3d:a5:8b:16:8d:f0:
         2a:33:d9:b5:ba:2b:a7:56:41:e0:b1:2e:c0:0b:f8:05:84:42:
         ce:98:2a:98:62:d7:af:fc:e7:b5:04:1b:11:2b:6e:28:66:c4:
         b1:57:07:52:5f:3c:10:34:02:4d:ba:e5:b6:06:47:f4:c0:36:
         a2:de:a9:97:49:02:fc:be:ab:51:46:db:1a:e6:c3:70:18:92:
         a4:83
-----BEGIN CERTIFICATE-----
MIICjDCCAfWgAwIBAgIBATANBgkqhkiG9w0BAQsFADA4MQswCQYDVQQGEwJDSDEQ
MA4GA1UECgwHSEVJRy1WRDEXMBUGA1UEAwwOQUxMRU1BTk8tRW1haWwwHhcNMjIw
NjA3MTMxODE1WhcNMjQwNjA2MTMxODE1WjA4MQswCQYDVQQGEwJDSDEQMA4GA1UE
CgwHSEVJRy1WRDEXMBUGA1UEAwwOQUxMRU1BTk8tRW1haWwwgZ8wDQYJKoZIhvcN
AQEBBQADgY0AMIGJAoGBAL4Ip2bT3iOdkNZDN0hPGPZ5Xo0txjjqQIka1K9a39z3
SCMBZbNZ5l3gr6wjt5myOykizkqYeGU/dpYgLWwNsVxLXRc0hr71cYv0mmqfzP7i
HmKEuTMdI8FcpeXUYysQGu00suYUSh+r0Sf45woe8jz0q88HAjJwbxNwYkn2HjEB
AgMBAAGjgaUwgaIwDgYDVR0PAQH/BAQDAgEGMBIGA1UdEwEB/wQIMAYBAf8CAQAw
HQYDVR0OBBYEFC0Amb8vLHYGAH3ZoeU990mDqapsMB8GA1UdIwQYMBaAFLazmrpj
Ik3Mee8wACpXDEfNkPoAMB0GA1UdJQQWMBQGCCsGAQUFBwMEBggrBgEFBQcDAjAd
BgNVHREEFjAUgRJZT1VSX0VNQUlMX0FERFJFU1MwDQYJKoZIhvcNAQELBQADgYEA
oOxrV1Z8m6Q/OG35p00mVzhLX4Vv/xPg/vftiQaqXvqr12/WWAVIf6WbaUUlm93H
PaWLFo3wKjPZtborp1ZB4LEuwAv4BYRCzpgqmGLXr/zntQQbEStuKGbEsVcHUl88
EDQCTbrltgZH9MA2ot6pl0kC/L6rUUbbGubDcBiSpIM=
-----END CERTIFICATE-----
